(dp1
S'me'
p2
(lp3
(lp4
VX
aVX
aVX
aVX
aV
aa(lp5
VX
aV
aV
aVX
aVX
aa(lp6
VX
aV
aVX
aVX
aV
aa(lp7
V
aV
aVX
aV
aV
aa(lp8
VX
aV
aVX
aVX
aV
aa(lp9
V
aVX
aV
aV
aVX
aasS'a'
(lp10
S'4/4'
p11
aS'4/5'
p12
asS'mf'
p13
(lp14
(lp15
S'X'
aS'n'
aS'424259xxxx'
p16
aa(lp17
S'X'
aS'y'
aS'267983xxxx'
p18
aa(lp19
S'X'
aS'y'
aS'424242xxxx'
p20
aa(lp21
S'X'
aS'n'
aS''
aa(lp22
S'X'
aS'n'
aS'610348xxxx'
p23
aa(lp24
S''
aS''
aS'610329xxxx'
p25
aasS'e'
(lp26
S'Tech Bowl'
p27
aS'Comp Sys T'
p28
aS'Open Source'
p29
aS'Video Game'
p30
aS'Music'
p31
asS'f'
(lp32
S'States Permission'
p33
aS'States Meds'
p34
aS'Phone #'
p35
asS'm'
(lp36
S'Andrew'
p37
aS'Cynthia'
p38
aS'Kyle'
p39
aS'Etan'
p40
aS'Caleb'
p41
aS'Matt'
p42
asS'ma'
p43
(lp44
(lp45
S'X'
aS'X'
aa(lp46
S'X'
aS'X'
aa(lp47
S''
aS'X'
aa(lp48
S''
aS'X'
aa(lp49
S'X'
aS'X'
aa(lp50
S'X'
aS''
aas.