(dp1
S'me'
p2
(lp3
(lp4
V
aV
aV
aV
aV
aV
aV
aV
aV
aV
aVA
aV
aV
aV
aV
aVA
aV
aV
aV
aVA
aa(lp5
V
aV
aV
aV
aV
aV
aV
aV
aV
aV
aVA
aVA
aV
aV
aV
aV
aV
aV
aV
aVA
aa(lp6
VX
aV
aV
aVA
aV
aV
aVA
aV
aVX
aVA
aV
aV
aV
aV
aV
aV
aV
aV
aV
aV
aa(lp7
V
aV
aVX
aV
aV
aV
aV
aVX
aV
aV
aV
aV
aV
aV
aV
aV
aV
aV
aVA
aVA
aa(lp8
V
aVReporter
p9
aV
aVA
aV
aV
aV
aV
aV
aV
aV
aV
aV
aV
aV
aV
aV
aV
aVA
aV
aa(lp10
V
aV
aV
aV
aV
aV
aV
aV
aV
aV
aVA
aVA
aV
aV
aV
aV
aV
aV
aV
aVA
aa(lp11
V
aV
aVX
aV
aV
aV
aV
aV
aVX
aV
aV
aV
aV
aV
aV
aV
aV
aVX
aV
aVA
aa(lp12
V
aVSergeant at Arms
p13
aV
aV
aV
aVX
aV
aV
aV
aV
aV
aVA
aV
aV
aVX
aV
aV
aV
aVA
aV
aa(lp14
V
aVPresident
p15
aV
aV
aV
aV
aV
aV
aV
aV
aV
aV
aV
aV
aV
aV
aV
aV
aVA
aV
aa(lp16
V
aV
aV
aV
aV
aV
aV
aV
aV
aVA
aV
aV
aVX
aV
aV
aV
aV
aV
aVA
aV
aa(lp17
V
aV
aV
aV
aV
aV
aV
aV
aV
aVA
aV
aV
aV
aV
aVX
aV
aV
aV
aV
aV
aa(lp18
V
aV
aV
aVA
aV
aV
aVA
aV
aV
aVA
aVA
aV
aV
aV
aV
aV
aV
aV
aV
aV
aa(lp19
V
aVSecretary
p20
aV
aV
aV
aV
aVA
aV
aVX
aV
aVA
aV
aV
aV
aV
aV
aV
aV
aV
aV
aa(lp21
V
aV
aV
aV
aV
aV
aV
aV
aV
aV
aV
aV
aV
aVX
aV
aV
aV
aV
aV
aV
aa(lp22
V
aV
aV
aV
aV
aV
aV
aV
aV
aV
aVA
aV
aV
aV
aV
aVA
aV
aV
aV
aVA
aa(lp23
V
aVVice President
p24
aV
aVA
aV
aV
aV
aV
aV
aVA
aV
aV
aV
aV
aV
aV
aV
aV
aVA
aV
aa(lp25
V
aVTreasurer
p26
aV
aV
aV
aV
aV
aV
aV
aV
aV
aVA
aV
aV
aV
aV
aVX
aV
aV
aV
aa(lp27
V
aV
aV
aV
aVX
aV
aVA
aV
aV
aVA
aV
aV
aV
aV
aV
aV
aV
aV
aV
aV
aasS'a'
(lp28
V9/18 Info
p29
aV9/25
p30
aV10/2 Forms Due
p31
aV10/9
p32
aV10/16
p33
aV10/23
p34
aV11/6
p35
aV11/13
p36
aV11/20
p37
aV12/4 LOCALS
p38
aV12/11
p39
aV1/15
p40
aV1/22 Forms Due
p41
aV1/29
p42
aV2/5
p43
aV2/8 REGIONALS
p44
aV2/19
p45
aV2/26
p46
aV3/5
p47
aV3/12
p48
aV4/2
p49
aVSTATES
p50
aV4/23
p51
aV4/30
p52
aV5/7
p53
aV5/21
p54
aV5/28
p55
aV6/4
p56
asS'mf'
p57
(lp58
(lp59
VS**26
p60
aV10
p61
aVY
aVNO
p62
aVWe
p63
aV4
aa(lp64
VS**27
p65
aV10
p66
aVNO GO
p67
aVN/A
p68
aVdeleted
p69
aV3
aa(lp70
VS**28
p71
aV11
p72
aVY
aVN/A
p73
aVthe
p74
aV1
aa(lp75
VS**29
p76
aV10
p77
aVY
aVN/A
p78
aVphone
p79
aV1
aa(lp80
VS**30
p81
aV12
p82
aVY
aVN/A
p83
aVnumbers
p84
aV3
aa(lp85
VS**31
p86
aV11
p87
aVY
aVYes
p88
aVfrom
p89
aV6
aa(lp90
VS**32
p91
aV12
p92
aVY
aVN/A
p93
aVthe
p94
aV4
aa(lp95
VS**33
p96
aV9
aVY
aVN/A
p97
aVevaluation
p98
aV3
aa(lp99
VS**34
p100
aV11
p101
aVY
aVYes
p102
aVcopy
p103
aV2
aa(lp104
VS**35
p105
aV9
aVY
aVN/A
p106
aVand
p107
aV1
aa(lp108
VS**36
p109
aV9
aVY
aVN/A
p110
aVrandomized
p111
aV5
aa(lp112
VS**37
p113
aV11
p114
aVY
aVN/A
p115
aVmedical
p116
aV6
aa(lp117
VS**38
p118
aV11
p119
aVY
aVN/A
p120
aVdata
p121
aV5
aa(lp122
VS**39
p123
aV12
p124
aVY
aVN/A
p125
aVfor
p126
aV5
aa(lp127
VS**43
p128
aV10
p129
aVY
aVN/A
p130
aVstudent
p131
aV4
aa(lp132
VS**44
p133
aV11
p134
aVY
aVN/A
p135
aVprivacy.
p136
aV2
aa(lp137
VS**45
p138
aV11
p139
aVY
aVN/A
p140
aVThank
p141
aV2
aa(lp142
VS**46
p143
aV11
p144
aVY
aVYes
p145
aVyou.
p146
aV2
aasS'e'
(lp147
VCareer Prep
p148
aVChapter Team
p149
aVDragster Design
p150
aVEngineering Desgin
p151
aVEssays on Technology
p152
aVExtemporaneous Speech
p153
aVFashion Design
p154
aVFlight Endurance
p155
aVFuture Tech Teacher
p156
aVManufacturing Prototype
p157
aVOn Demand Video
p158
aVOpen Source Software
p159
aVPhoto Tech
p160
aVPrepared Presentation
p161
aVPromotional Graphics
p162
aVStructural Engineering
p163
aVTech Sketching
p164
aVTransportation Modeling
p165
aVWebmaster
p166
aVVEX Robotics
p167
asS'f'
(lp168
VConference ID
p169
aVGrade
p170
aVPermission Form
p171
aVTurned in meds
p172
aVPhone number
p173
aVRoom
p174
asS'm'
(lp175
VRyan
p176
aVReilly
p177
aVRyan
p178
aVXinke
p179
aVWon
p180
aVCynthia
p181
aVAlaric
p182
aVEtan
p183
aVBen
p184
aVMason
p185
aVCatherine
p186
aVAmy
p187
aVSabrina
p188
aVSitara
p189
aVChristopher
p190
aVSamuel
p191
aVAndrew
p192
aVNathan
p193
asS'ma'
p194
(lp195
(lp196
VX
aV
aVX
aV
aVX
aVX
aVX
aV
aV
aVX
aV
aV
aVX
aVX
aVX
aVX
aVX
aV
aV
aVX
aVX
aVX
aVX
aVX
aVX
aVX
aVX
aVX
aa(lp197
VX
aVX
aVX
aV
aVX
aVX
aV
aVX
aV
aVX
aV
aVX
aVX
aVX
aVX
aVX
aVX
aV
aVX
aV
aVX
aVX
aV
aVX
aVX
aVX
aVX
aVX
aa(lp198
VX
aV
aVX
aV
aV
aV
aV
aV
aVX
aVX
aV
aV
aVX
aV
aVX
aVX
aV
aV
aV
aVX
aVX
aVX
aV
aVX
aV
aV
aVX
aVX
aa(lp199
VX
aVX
aVX
aV
aVX
aVX
aV
aVX
aVX
aVX
aV
aVX
aVX
aVX
aVX
aVX
aV
aVX
aV
aVX
aVX
aVX
aVX
aVX
aVX
aVX
aVX
aV
aa(lp200
VX
aVX
aVX
aV
aV
aV
aV
aV
aVX
aVX
aV
aV
aVX
aV
aVX
aVX
aVX
aV
aV
aV
aVX
aVX
aV
aVX
aV
aV
aV
aV
aa(lp201
VX
aVX
aVX
aV
aVX
aVX
aVX
aV
aVX
aVX
aV
aVX
aVX
aVX
aVX
aVX
aV
aVX
aV
aVX
aVX
aVX
aV
aV
aV
aVX
aVX
aVX
aa(lp202
VX
aVX
aVX
aVX
aVX
aVX
aVX
aVX
aVX
aVX
aVX
aVX
aVX
aVX
aVX
aVX
aVX
aVX
aVX
aVX
aVX
aVX
aVX
aVX
aVX
aVX
aV
aV
aa(lp203
VX
aVX
aVX
aVX
aV
aV
aV
aVX
aVX
aVX
aVX
aVX
aVX
aVX
aVX
aVX
aVX
aVX
aVX
aVX
aVX
aVX
aV
aV
aV
aV
aV
aVX
aa(lp204
VX
aVX
aVX
aVX
aVX
aVX
aVX
aV
aVX
aVX
aVX
aV
aVX
aVX
aV
aVX
aVX
aVX
aV
aVX
aVX
aVX
aVX
aV
aVX
aVX
aV
aVX
aa(lp205
VX
aV
aVX
aV
aVX
aV
aVX
aV
aVX
aVX
aVX
aV
aVX
aV
aVX
aVX
aVX
aV
aVX
aV
aVX
aVX
aV
aVX
aV
aVX
aV
aVX
aa(lp206
VX
aV
aVX
aV
aVX
aVX
aV
aV
aVX
aVX
aV
aVX
aVX
aV
aVX
aVX
aV
aVX
aVX
aV
aVX
aVX
aV
aVX
aVX
aV
aVX
aV
aa(lp207
VX
aVX
aVX
aV
aVX
aV
aVX
aVX
aVX
aVX
aVX
aVX
aV
aV
aVX
aVX
aVX
aV
aV
aVX
aVX
aVX
aV
aVX
aV
aVX
aV
aV
aa(lp208
VX
aVX
aVX
aV
aVX
aV
aVX
aV
aVX
aVX
aVX
aVX
aVX
aV
aV
aVExcused
p209
aV
aV
aVX
aVX
aVX
aVX
aVX
aV
aV
aVX
aVX
aVX
aa(lp210
VX
aVX
aVX
aV
aVX
aVX
aV
aVX
aV
aVX
aVX
aV
aVX
aV
aVX
aVX
aV
aVX
aV
aV
aVX
aVX
aVX
aV
aVX
aV
aV
aV
aa(lp211
VX
aVX
aVX
aV
aV
aV
aV
aV
aV
aVX
aVX
aV
aVX
aV
aVX
aVX
aVX
aV
aV
aVX
aVX
aVX
aVX
aV
aV
aVX
aVX
aVX
aa(lp212
VX
aVX
aVX
aV
aV
aV
aV
aV
aV
aVX
aVX
aV
aVX
aV
aVX
aVX
aV
aV
aV
aVX
aVX
aVX
aVX
aV
aV
aV
aVX
aVX
aa(lp213
VX
aVX
aVX
aVX
aV
aVX
aV
aVX
aV
aVX
aVX
aV
aVX
aV
aV
aVX
aVX
aV
aVX
aVX
aVX
aVX
aVX
aV
aVX
aV
aVX
aV
aa(lp214
VX
aV
aVX
aV
aV
aVX
aV
aV
aVX
aVX
aV
aV
aVX
aVX
aVX
aVX
aV
aV
aVX
aV
aVX
aVX
aV
aV
aV
aVX
aVX
aVX
aas.