(dp1
S'me'
p2
(lp3
(lp4
VX
aVX
aVX
aVX
aV
aa(lp5
VX
aV
aV
aVX
aVX
aa(lp6
VX
aV
aVX
aVX
aV
aa(lp7
V
aV
aVX
aV
aV
aa(lp8
VX
aV
aVX
aVX
aV
aa(lp9
V
aVX
aV
aV
aVX
aasS'a'
(lp10
V3/5 
p11
aV3/12
p12
aV3/19
p13
aV3/26
p14
aV4/2
p15
aV4/8
p16
asS'mf'
p17
(lp18
(lp19
VX
aVn
aV424259xxxx
p20
aa(lp21
VX
aVflexeril
p22
aV267983xxxx
p23
aa(lp24
VX
aVibuprofin
p25
aV424242xxxx
p26
aa(lp27
VX
aVn
aV
aa(lp28
VX
aValeve
p29
aV610348xxxx
p30
aa(lp31
V
aV
aV610329xxxx
p32
aasS'e'
(lp33
S'Tech Bowl'
p34
aS'Comp Sys T'
p35
aS'Open Source'
p36
aS'Video Game'
p37
aS'Music'
p38
asS'f'
(lp39
S'States Permission'
p40
aS'States Meds'
p41
aS'Phone #'
p42
asS'm'
(lp43
S'Andrew'
p44
aS'Cynthia'
p45
aS'Kyle'
p46
aS'Etan'
p47
aS'Caleb'
p48
aS'Matt'
p49
asS'ma'
p50
(lp51
(lp52
V
aV
aVX
aVX
aVX
aVX
aa(lp53
VX
aV
aV
aVX
aV
aVX
aa(lp54
V
aVX
aVX
aV
aV
aVX
aa(lp55
VX
aVX
aVX
aV
aV
aVX
aa(lp56
VX
aVX
aVX
aVX
aVX
aVX
aa(lp57
V
aV
aV
aV
aV
aVX
aas.